target datalayout = "e-m:e-p270:32:32-p271:32:32-p272:64:64-i64:64-i128:128-f80:128-n8:16:32:64-S128"
target triple = "x86_64-pc-linux-gnu"

%struct.lua_State = type { i8, i8, i8, i8, i8, i8, i8, ptr, ptr, ptr, ptr, ptr, ptr, ptr, ptr, i32, i32, i16, i16, i32, ptr, ptr, ptr, ptr, ptr }
%struct.lua_TValue = type { %union.Value, [1 x i32], i32 }
%union.Value = type { ptr }
%struct.TString = type { i8, i8, i8, i16, ptr, i32, i32, [1 x i8] }
%struct.luaL_Strbuf = type { ptr, ptr, ptr, ptr, [512 x i8] }

@.str.22 = private unnamed_addr constant [17 x i8] c"buffer too large\00", align 1

; Function Attrs: mustprogress uwtable
define internal noundef i64 @_ZL17getnextbuffersizeP9lua_Statemm(ptr noundef %0, i64 noundef %1, i64 noundef %2) #3 {
  %4 = alloca ptr, align 8
  %5 = alloca i64, align 8
  %6 = alloca i64, align 8
  %7 = alloca i64, align 8
  store ptr %0, ptr %4, align 8
  store i64 %1, ptr %5, align 8
  store i64 %2, ptr %6, align 8
  %8 = load i64, ptr %5, align 8
  %9 = load i64, ptr %5, align 8
  %10 = udiv i64 %9, 2
  %11 = add i64 %8, %10
  store i64 %11, ptr %7, align 8
  %12 = load i64, ptr %6, align 8
  %13 = sub i64 -1, %12
  %14 = load i64, ptr %5, align 8
  %15 = icmp ult i64 %13, %14
  br i1 %15, label %16, label %18

16:                                               ; preds = %3
  %17 = load ptr, ptr %4, align 8
  call void (ptr, ptr, ...) @_Z11luaL_errorLP9lua_StatePKcz(ptr noundef %17, ptr noundef @.str.22) #8
  unreachable

18:                                               ; preds = %3
  %19 = load i64, ptr %7, align 8
  %20 = load i64, ptr %6, align 8
  %21 = icmp ult i64 %19, %20
  br i1 %21, label %22, label %24

22:                                               ; preds = %18
  %23 = load i64, ptr %6, align 8
  store i64 %23, ptr %7, align 8
  br label %24

24:                                               ; preds = %22, %18
  %25 = load i64, ptr %7, align 8
  ret i64 %25
}

; Function Attrs: mustprogress uwtable
define internal noundef ptr @_ZL12extendstrbufP11luaL_Strbufmi(ptr noundef %0, i64 noundef %1, i32 noundef %2) #3 {
  %4 = alloca ptr, align 8
  %5 = alloca i64, align 8
  %6 = alloca i32, align 4
  %7 = alloca ptr, align 8
  %8 = alloca ptr, align 8
  %9 = alloca i64, align 8
  %10 = alloca i64, align 8
  %11 = alloca ptr, align 8
  %12 = alloca ptr, align 8
  store ptr %0, ptr %4, align 8
  store i64 %1, ptr %5, align 8
  store i32 %2, ptr %6, align 4
  %13 = load ptr, ptr %4, align 8
  %14 = getelementptr inbounds %struct.luaL_Strbuf, ptr %13, i32 0, i32 2
  %15 = load ptr, ptr %14, align 8
  store ptr %15, ptr %7, align 8
  %16 = load ptr, ptr %4, align 8
  %17 = getelementptr inbounds %struct.luaL_Strbuf, ptr %16, i32 0, i32 3
  %18 = load ptr, ptr %17, align 8
  %19 = icmp ne ptr %18, null
  br i1 %19, label %20, label %21

20:                                               ; preds = %3
  br label %21

21:                                               ; preds = %20, %3
  %22 = load ptr, ptr %4, align 8
  %23 = getelementptr inbounds %struct.luaL_Strbuf, ptr %22, i32 0, i32 3
  %24 = load ptr, ptr %23, align 8
  %25 = icmp ne ptr %24, null
  br i1 %25, label %26, label %32

26:                                               ; preds = %21
  %27 = load ptr, ptr %4, align 8
  %28 = getelementptr inbounds %struct.luaL_Strbuf, ptr %27, i32 0, i32 3
  %29 = load ptr, ptr %28, align 8
  %30 = getelementptr inbounds %struct.TString, ptr %29, i32 0, i32 7
  %31 = getelementptr inbounds [1 x i8], ptr %30, i64 0, i64 0
  br label %36

32:                                               ; preds = %21
  %33 = load ptr, ptr %4, align 8
  %34 = getelementptr inbounds %struct.luaL_Strbuf, ptr %33, i32 0, i32 4
  %35 = getelementptr inbounds [512 x i8], ptr %34, i64 0, i64 0
  br label %36

36:                                               ; preds = %32, %26
  %37 = phi ptr [ %31, %26 ], [ %35, %32 ]
  store ptr %37, ptr %8, align 8
  %38 = load ptr, ptr %4, align 8
  %39 = getelementptr inbounds %struct.luaL_Strbuf, ptr %38, i32 0, i32 1
  %40 = load ptr, ptr %39, align 8
  %41 = load ptr, ptr %8, align 8
  %42 = ptrtoint ptr %40 to i64
  %43 = ptrtoint ptr %41 to i64
  %44 = sub i64 %42, %43
  store i64 %44, ptr %9, align 8
  %45 = load ptr, ptr %4, align 8
  %46 = getelementptr inbounds %struct.luaL_Strbuf, ptr %45, i32 0, i32 2
  %47 = load ptr, ptr %46, align 8
  %48 = load i64, ptr %9, align 8
  %49 = load i64, ptr %9, align 8
  %50 = load i64, ptr %5, align 8
  %51 = add i64 %49, %50
  %52 = call noundef i64 @_ZL17getnextbuffersizeP9lua_Statemm(ptr noundef %47, i64 noundef %48, i64 noundef %51)
  store i64 %52, ptr %10, align 8
  %53 = load ptr, ptr %7, align 8
  %54 = load i64, ptr %10, align 8
  %55 = call noundef ptr @_Z13luaS_bufstartP9lua_Statem(ptr noundef %53, i64 noundef %54)
  store ptr %55, ptr %11, align 8
  %56 = load ptr, ptr %11, align 8
  %57 = getelementptr inbounds %struct.TString, ptr %56, i32 0, i32 7
  %58 = getelementptr inbounds [1 x i8], ptr %57, i64 0, i64 0
  %59 = load ptr, ptr %8, align 8
  %60 = load ptr, ptr %4, align 8
  %61 = getelementptr inbounds %struct.luaL_Strbuf, ptr %60, i32 0, i32 0
  %62 = load ptr, ptr %61, align 8
  %63 = load ptr, ptr %8, align 8
  %64 = ptrtoint ptr %62 to i64
  %65 = ptrtoint ptr %63 to i64
  %66 = sub i64 %64, %65
  call void @llvm.memcpy.p0.p0.i64(ptr align 8 %58, ptr align 1 %59, i64 %66, i1 false)
  %67 = load ptr, ptr %8, align 8
  %68 = load ptr, ptr %4, align 8
  %69 = getelementptr inbounds %struct.luaL_Strbuf, ptr %68, i32 0, i32 4
  %70 = getelementptr inbounds [512 x i8], ptr %69, i64 0, i64 0
  %71 = icmp eq ptr %67, %70
  br i1 %71, label %72, label %76

72:                                               ; preds = %36
  %73 = load ptr, ptr %7, align 8
  call void @_Z11lua_pushnilP9lua_State(ptr noundef %73)
  %74 = load ptr, ptr %7, align 8
  %75 = load i32, ptr %6, align 4
  call void @_Z10lua_insertP9lua_Statei(ptr noundef %74, i32 noundef %75)
  br label %76

76:                                               ; preds = %72, %36
  %77 = load ptr, ptr %7, align 8
  %78 = getelementptr inbounds %struct.lua_State, ptr %77, i32 0, i32 7
  %79 = load ptr, ptr %78, align 8
  %80 = load i32, ptr %6, align 4
  %81 = sext i32 %80 to i64
  %82 = getelementptr inbounds %struct.lua_TValue, ptr %79, i64 %81
  store ptr %82, ptr %12, align 8
  %83 = load ptr, ptr %11, align 8
  %84 = load ptr, ptr %12, align 8
  %85 = getelementptr inbounds %struct.lua_TValue, ptr %84, i32 0, i32 0
  store ptr %83, ptr %85, align 8
  %86 = load ptr, ptr %12, align 8
  %87 = getelementptr inbounds %struct.lua_TValue, ptr %86, i32 0, i32 2
  store i32 5, ptr %87, align 4
  %88 = load ptr, ptr %11, align 8
  %89 = getelementptr inbounds %struct.TString, ptr %88, i32 0, i32 7
  %90 = getelementptr inbounds [1 x i8], ptr %89, i64 0, i64 0
  %91 = load ptr, ptr %4, align 8
  %92 = getelementptr inbounds %struct.luaL_Strbuf, ptr %91, i32 0, i32 0
  %93 = load ptr, ptr %92, align 8
  %94 = load ptr, ptr %8, align 8
  %95 = ptrtoint ptr %93 to i64
  %96 = ptrtoint ptr %94 to i64
  %97 = sub i64 %95, %96
  %98 = getelementptr inbounds i8, ptr %90, i64 %97
  %99 = load ptr, ptr %4, align 8
  %100 = getelementptr inbounds %struct.luaL_Strbuf, ptr %99, i32 0, i32 0
  store ptr %98, ptr %100, align 8
  %101 = load ptr, ptr %11, align 8
  %102 = getelementptr inbounds %struct.TString, ptr %101, i32 0, i32 7
  %103 = getelementptr inbounds [1 x i8], ptr %102, i64 0, i64 0
  %104 = load i64, ptr %10, align 8
  %105 = getelementptr inbounds i8, ptr %103, i64 %104
  %106 = load ptr, ptr %4, align 8
  %107 = getelementptr inbounds %struct.luaL_Strbuf, ptr %106, i32 0, i32 1
  store ptr %105, ptr %107, align 8
  %108 = load ptr, ptr %11, align 8
  %109 = load ptr, ptr %4, align 8
  %110 = getelementptr inbounds %struct.luaL_Strbuf, ptr %109, i32 0, i32 3
  store ptr %108, ptr %110, align 8
  %111 = load ptr, ptr %4, align 8
  %112 = getelementptr inbounds %struct.luaL_Strbuf, ptr %111, i32 0, i32 0
  %113 = load ptr, ptr %112, align 8
  ret ptr %113
}

; Function Attrs: mustprogress uwtable
define dso_local noundef ptr @_Z17luaL_prepbuffsizeP11luaL_Strbufm(ptr noundef %0, i64 noundef %1) #3 {
  %3 = alloca ptr, align 8
  %4 = alloca ptr, align 8
  %5 = alloca i64, align 8
  store ptr %0, ptr %4, align 8
  store i64 %1, ptr %5, align 8
  %6 = load ptr, ptr %4, align 8
  %7 = getelementptr inbounds %struct.luaL_Strbuf, ptr %6, i32 0, i32 1
  %8 = load ptr, ptr %7, align 8
  %9 = load ptr, ptr %4, align 8
  %10 = getelementptr inbounds %struct.luaL_Strbuf, ptr %9, i32 0, i32 0
  %11 = load ptr, ptr %10, align 8
  %12 = ptrtoint ptr %8 to i64
  %13 = ptrtoint ptr %11 to i64
  %14 = sub i64 %12, %13
  %15 = load i64, ptr %5, align 8
  %16 = icmp ult i64 %14, %15
  br i1 %16, label %17, label %31

17:                                               ; preds = %2
  %18 = load ptr, ptr %4, align 8
  %19 = load i64, ptr %5, align 8
  %20 = load ptr, ptr %4, align 8
  %21 = getelementptr inbounds %struct.luaL_Strbuf, ptr %20, i32 0, i32 1
  %22 = load ptr, ptr %21, align 8
  %23 = load ptr, ptr %4, align 8
  %24 = getelementptr inbounds %struct.luaL_Strbuf, ptr %23, i32 0, i32 0
  %25 = load ptr, ptr %24, align 8
  %26 = ptrtoint ptr %22 to i64
  %27 = ptrtoint ptr %25 to i64
  %28 = sub i64 %26, %27
  %29 = sub i64 %19, %28
  %30 = call noundef ptr @_ZL12extendstrbufP11luaL_Strbufmi(ptr noundef %18, i64 noundef %29, i32 noundef -1)
  store ptr %30, ptr %3, align 8
  br label %35

31:                                               ; preds = %2
  %32 = load ptr, ptr %4, align 8
  %33 = getelementptr inbounds %struct.luaL_Strbuf, ptr %32, i32 0, i32 0
  %34 = load ptr, ptr %33, align 8
  store ptr %34, ptr %3, align 8
  br label %35

35:                                               ; preds = %31, %17
  %36 = load ptr, ptr %3, align 8
  ret ptr %36
}