; Function Attrs: mustprogress uwtable
define dso_local noundef ptr @_Z17luaL_prepbuffsizeP11luaL_Strbufm(ptr noundef %0, i64 noundef %1) local_unnamed_addr #2 {
  %3 = getelementptr inbounds i8, ptr %0, i64 8
  %4 = load ptr, ptr %3, align 8
  %5 = load ptr, ptr %0, align 8
  %6 = ptrtoint ptr %4 to i64
  %7 = ptrtoint ptr %5 to i64
  %8 = sub i64 %6, %7
  %9 = icmp ult i64 %8, %1
  br i1 %9, label %10, label %43

10:                                               ; preds = %2
  %11 = sub i64 %1, %8
  %12 = getelementptr inbounds i8, ptr %0, i64 16
  %13 = load ptr, ptr %12, align 8
  %14 = getelementptr inbounds i8, ptr %0, i64 24
  %15 = load ptr, ptr %14, align 8
  %.not.i = icmp eq ptr %15, null
  %16 = getelementptr inbounds i8, ptr %15, i64 24
  %17 = getelementptr inbounds i8, ptr %0, i64 32
  %18 = select i1 %.not.i, ptr %17, ptr %16
  %19 = ptrtoint ptr %18 to i64
  %20 = sub i64 %6, %19
  %21 = add i64 %20, %11
  %22 = xor i64 %21, -1
  %23 = icmp ugt i64 %20, %22
  br i1 %23, label %24, label %_ZL17getnextbuffersizeP9lua_Statemm.exit.i

24:                                               ; preds = %10
  tail call void (ptr, ptr, ...) @_Z11luaL_errorLP9lua_StatePKcz(ptr noundef %13, ptr noundef nonnull @.str.22) #11
  unreachable

_ZL17getnextbuffersizeP9lua_Statemm.exit.i:       ; preds = %10
  %25 = lshr i64 %20, 1
  %26 = add i64 %25, %20
  %spec.select.i.i = tail call noundef i64 @llvm.umax.i64(i64 %26, i64 %21)
  %27 = tail call noundef ptr @_Z13luaS_bufstartP9lua_Statem(ptr noundef %13, i64 noundef %spec.select.i.i)
  %28 = getelementptr inbounds i8, ptr %27, i64 24
  %29 = load ptr, ptr %0, align 8
  %30 = ptrtoint ptr %29 to i64
  %31 = sub i64 %30, %19
  tail call void @llvm.memcpy.p0.p0.i64(ptr nonnull align 8 %28, ptr nonnull align 1 %18, i64 %31, i1 false)
  %32 = icmp eq ptr %18, %17
  br i1 %32, label %33, label %_ZL12extendstrbufP11luaL_Strbufmi.exit

33:                                               ; preds = %_ZL17getnextbuffersizeP9lua_Statemm.exit.i
  tail call void @_Z11lua_pushnilP9lua_State(ptr noundef %13)
  tail call void @_Z10lua_insertP9lua_Statei(ptr noundef %13, i32 noundef -1)
  br label %_ZL12extendstrbufP11luaL_Strbufmi.exit

_ZL12extendstrbufP11luaL_Strbufmi.exit:           ; preds = %_ZL17getnextbuffersizeP9lua_Statemm.exit.i, %33
  %34 = getelementptr inbounds i8, ptr %13, i64 8
  %35 = load ptr, ptr %34, align 8
  %36 = getelementptr inbounds i8, ptr %35, i64 -16
  store ptr %27, ptr %36, align 8
  %37 = getelementptr inbounds i8, ptr %35, i64 -4
  store i32 5, ptr %37, align 4
  %38 = load ptr, ptr %0, align 8
  %39 = ptrtoint ptr %38 to i64
  %40 = sub i64 %39, %19
  %41 = getelementptr inbounds i8, ptr %28, i64 %40
  store ptr %41, ptr %0, align 8
  %42 = getelementptr inbounds i8, ptr %28, i64 %spec.select.i.i
  store ptr %42, ptr %3, align 8
  store ptr %27, ptr %14, align 8
  br label %43

43:                                               ; preds = %2, %_ZL12extendstrbufP11luaL_Strbufmi.exit
  %.0 = phi ptr [ %41, %_ZL12extendstrbufP11luaL_Strbufmi.exit ], [ %5, %2 ]
  ret ptr %.0
}